(dp0
S'inline_comments'
p1
S'None'
p2
sS'data_begin_line'
p3
S'21'
p4
sS'column_names_begin_line'
p5
S'20'
p6
sS'footer_line_types'
p7
S'None'
p8
sS'general_descriptor'
p9
S'Sparameter'
p10
sS'specific_descriptor'
p11
S'Two_Port_Raw'
p12
sS'header_end_line'
p13
S'20'
p14
sS'column_names_end_line'
p15
S'21'
p16
sS'data_table_element_separator'
p17
S'None'
p18
sS'header_begin_token'
p19
S'None'
p20
sS'inline_comment_begin'
p21
S'None'
p22
sS'column_descriptions'
p23
S'{Direction:'
p24
sS'inline_comment_end'
p25
S'None'
p26
sS'data_begin_token'
p27
S'None'
p28
sS'header_begin_line'
p29
S'0'
p30
sS'row_end_token'
p31
S'None'
p32
sS'block_comment_begin'
p33
S'None'
p34
sS'metadata'
p35
S'None'
p36
sS'header_end_token'
p37
S'None'
p38
sS'comment_begin'
p39
S'#'
p40
sS'empty_value'
p41
S'None'
p42
sS'column_names_begin_token'
p43
S'None'
p44
sS'footer_end_token'
p45
S'None'
p46
sS'footer_begin_token'
p47
S'None'
p48
sS'column_names_delimiter'
p49
S'nan'
p50
sS'escape_character'
p51
S'None'
p52
sS'metadata_key_value_delimiter'
p53
S'None'
p54
sS'column_types'
p55
S'[float,'
p56
sS'data'
p57
S'None'
p58
sS'treat_header_as_comment'
p59
S'None'
p60
sS'column_units'
p61
S'None'
p62
sS'column_names'
p63
S'None'
p64
sS'treat_footer_as_comment'
p65
S'None'
p66
sS'extension'
p67
S'txt'
p68
sS'header'
p69
S'None'
p70
sS'footer'
p71
S'None'
p72
sS'data_end_line'
p73
S'None'
p74
sS'block_comment_end'
p75
S'None'
p76
sS'footer_end_line'
p77
S'None'
p78
sS'data_delimiter'
p79
S'nan'
p80
sS'footer_begin_line'
p81
S'None'
p82
sS'data_end_token'
p83
S'None'
p84
sS'row_begin_token'
p85
S'None'
p86
sS'directory'
p87
S'None'
p88
sS'header_line_types'
p89
S'None'
p90
sS'row_formatter_string'
p91
S'{0:.5f}{delimiter}{1}{delimiter}{2}{delimiter}...'
p92
sS'metadata_delimiter'
p93
S'None'
p94
s.