(dp0
S'inline_comments'
p1
NsS'data_begin_line'
p2
I1
sS'column_names_begin_line'
p3
I0
sS'footer_line_types'
p4
NsS'general_descriptor'
p5
S'Table'
p6
sS'header_end_token'
p7
NsS'header_end_line'
p8
NsS'column_names_end_line'
p9
I1
sS'data_table_element_separator'
p10
S'\n'
p11
sS'escape_character'
p12
NsS'data'
p13
NsS'inline_comment_begin'
p14
NsS'column_descriptions'
p15
NsS'inline_comment_end'
p16
NsS'data_begin_token'
p17
NsS'comment_end'
p18
NsS'header_begin_line'
p19
NsS'row_end_token'
p20
NsS'column_names_end_token'
p21
NsS'block_comment_begin'
p22
NsS'header_begin_token'
p23
NsS'metadata'
p24
NsS'specific_descriptor'
p25
S'Data'
p26
sS'empty_value'
p27
NsS'column_names_begin_token'
p28
NsS'footer_end_token'
p29
NsS'footer_begin_token'
p30
NsS'column_names'
p31
NsS'metadata_key_value_delimiter'
p32
NsS'column_types'
p33
NsS'comment_begin'
p34
NsS'treat_header_as_comment'
p35
NsS'column_units'
p36
NsS'column_names_delimiter'
p37
S','
p38
sS'treat_footer_as_comment'
p39
NsS'extension'
p40
S'txt'
p41
sS'header'
p42
NsS'footer'
p43
NsS'data_end_line'
p44
NsS'block_comment_end'
p45
NsS'footer_end_line'
p46
NsS'data_delimiter'
p47
g38
sS'footer_begin_line'
p48
NsS'data_end_token'
p49
NsS'row_begin_token'
p50
NsS'directory'
p51
NsS'header_line_types'
p52
NsS'row_formatter_string'
p53
NsS'metadata_delimiter'
p54
Ns.