(dp0
S'inline_comments'
p1
NsS'data_begin_line'
p2
I2
sS'column_names_begin_line'
p3
I1
sS'footer_line_types'
p4
NsS'general_descriptor'
p5
S'Table'
p6
sS'header_end_token'
p7
NsS'header_end_line'
p8
I1
sS'column_names_end_line'
p9
I2
sS'data_table_element_separator'
p10
S'\n'
p11
sS'escape_character'
p12
NsS'data'
p13
NsS'inline_comment_begin'
p14
NsS'column_descriptions'
p15
NsS'inline_comment_end'
p16
NsS'data_begin_token'
p17
NsS'comment_end'
p18
NsS'header_begin_line'
p19
I0
sS'row_end_token'
p20
NsS'column_names_end_token'
p21
NsS'block_comment_begin'
p22
NsS'header_begin_token'
p23
NsS'metadata'
p24
NsS'specific_descriptor'
p25
S'Data'
p26
sS'empty_value'
p27
NsS'column_names_begin_token'
p28
S'!'
p29
sS'footer_end_token'
p30
NsS'footer_begin_token'
p31
NsS'column_names'
p32
NsS'metadata_key_value_delimiter'
p33
NsS'column_types'
p34
NsS'comment_begin'
p35
g29
sS'treat_header_as_comment'
p36
NsS'column_units'
p37
NsS'column_names_delimiter'
p38
S'\t'
p39
sS'treat_footer_as_comment'
p40
NsS'extension'
p41
S'txt'
p42
sS'header'
p43
NsS'footer'
p44
NsS'data_end_line'
p45
I4
sS'block_comment_end'
p46
NsS'footer_end_line'
p47
NsS'data_delimiter'
p48
g39
sS'footer_begin_line'
p49
I4
sS'data_end_token'
p50
NsS'row_begin_token'
p51
NsS'directory'
p52
NsS'header_line_types'
p53
NsS'row_formatter_string'
p54
NsS'metadata_delimiter'
p55
Ns.